	.text
	.file	"reference_address.d9242235f6be183d-cgu.0"
	.section	.text._ZN3std10sys_common9backtrace28__rust_begin_short_backtrace17h68524d7dadb5a732E,"ax",@progbits
	.p2align	4, 0x90
	.type	_ZN3std10sys_common9backtrace28__rust_begin_short_backtrace17h68524d7dadb5a732E,@function
_ZN3std10sys_common9backtrace28__rust_begin_short_backtrace17h68524d7dadb5a732E:
.Lfunc_begin0:
	.file	1 "/rustc/9b00956e56009bab2aa15d7bff10916599e3d6d6/library/std/src/sys_common" "backtrace.rs"
	.loc	1 151 0
	.cfi_startproc
	subq	$24, %rsp
	.cfi_def_cfa_offset 32
.Ltmp0:
	.file	2 "/rustc/9b00956e56009bab2aa15d7bff10916599e3d6d6/library/core/src" "hint.rs"
	.loc	2 336 27 prologue_end
	movq	%rdi, 16(%rsp)
.Ltmp1:
	.loc	1 155 18
	callq	_ZN4core3ops8function6FnOnce9call_once17h0fa935f26b0375f8E
.Ltmp2:
	.loc	2 337 5
	#APP
	#NO_APP
.Ltmp3:
	.loc	1 161 2 epilogue_begin
	addq	$24, %rsp
	.cfi_def_cfa_offset 8
	retq
.Ltmp4:
.Lfunc_end0:
	.size	_ZN3std10sys_common9backtrace28__rust_begin_short_backtrace17h68524d7dadb5a732E, .Lfunc_end0-_ZN3std10sys_common9backtrace28__rust_begin_short_backtrace17h68524d7dadb5a732E
	.cfi_endproc

	.section	.text._ZN3std2rt10lang_start17hb3753749e8c6f08fE,"ax",@progbits
	.hidden	_ZN3std2rt10lang_start17hb3753749e8c6f08fE
	.globl	_ZN3std2rt10lang_start17hb3753749e8c6f08fE
	.p2align	4, 0x90
	.type	_ZN3std2rt10lang_start17hb3753749e8c6f08fE,@function
_ZN3std2rt10lang_start17hb3753749e8c6f08fE:
.Lfunc_begin1:
	.file	3 "/rustc/9b00956e56009bab2aa15d7bff10916599e3d6d6/library/std/src" "rt.rs"
	.loc	3 159 0
	.cfi_startproc
	subq	$56, %rsp
	.cfi_def_cfa_offset 64
	movl	%ecx, %eax
	movq	%rdx, %rcx
	movq	%rsi, %rdx
	movq	%rdi, 16(%rsp)
	movq	%rdx, 24(%rsp)
	movq	%rcx, 32(%rsp)
	movb	%al, 47(%rsp)
.Ltmp5:
	.loc	3 166 10 prologue_end
	movq	%rdi, 8(%rsp)
	.loc	3 165 17
	leaq	8(%rsp), %rdi
	leaq	.L__unnamed_1(%rip), %rsi
	movzbl	%al, %r8d
	callq	*_ZN3std2rt19lang_start_internal17h103c42a9c4e95084E@GOTPCREL(%rip)
	movq	%rax, (%rsp)
	.loc	3 165 12 is_stmt 0
	movq	(%rsp), %rax
	movq	%rax, 48(%rsp)
	.loc	3 172 2 epilogue_begin is_stmt 1
	addq	$56, %rsp
	.cfi_def_cfa_offset 8
	retq
.Ltmp6:
.Lfunc_end1:
	.size	_ZN3std2rt10lang_start17hb3753749e8c6f08fE, .Lfunc_end1-_ZN3std2rt10lang_start17hb3753749e8c6f08fE
	.cfi_endproc

	.section	".text._ZN3std2rt10lang_start28_$u7b$$u7b$closure$u7d$$u7d$17he08794fbbe382daaE","ax",@progbits
	.p2align	4, 0x90
	.type	_ZN3std2rt10lang_start28_$u7b$$u7b$closure$u7d$$u7d$17he08794fbbe382daaE,@function
_ZN3std2rt10lang_start28_$u7b$$u7b$closure$u7d$$u7d$17he08794fbbe382daaE:
.Lfunc_begin2:
	.loc	3 166 0
	.cfi_startproc
	subq	$24, %rsp
	.cfi_def_cfa_offset 32
	movq	%rdi, 8(%rsp)
.Ltmp7:
	.loc	3 166 77 prologue_end
	movq	(%rdi), %rdi
	.loc	3 166 18 is_stmt 0
	callq	_ZN3std10sys_common9backtrace28__rust_begin_short_backtrace17h68524d7dadb5a732E
	callq	_ZN54_$LT$$LP$$RP$$u20$as$u20$std..process..Termination$GT$6report17hae08c4678f09dc11E
	movb	%al, 7(%rsp)
.Ltmp8:
	.file	4 "/rustc/9b00956e56009bab2aa15d7bff10916599e3d6d6/library/std/src" "process.rs"
	.loc	4 2038 9 is_stmt 1
	leaq	7(%rsp), %rax
	movq	%rax, 16(%rsp)
.Ltmp9:
	.file	5 "/rustc/9b00956e56009bab2aa15d7bff10916599e3d6d6/library/std/src/sys/pal/unix/process" "process_common.rs"
	.loc	5 639 9
	movzbl	7(%rsp), %eax
.Ltmp10:
	.loc	3 166 100 epilogue_begin
	addq	$24, %rsp
	.cfi_def_cfa_offset 8
	retq
.Ltmp11:
.Lfunc_end2:
	.size	_ZN3std2rt10lang_start28_$u7b$$u7b$closure$u7d$$u7d$17he08794fbbe382daaE, .Lfunc_end2-_ZN3std2rt10lang_start28_$u7b$$u7b$closure$u7d$$u7d$17he08794fbbe382daaE
	.cfi_endproc

	.section	".text._ZN42_$LT$$RF$T$u20$as$u20$core..fmt..Debug$GT$3fmt17h0ba8f330b51b2000E","ax",@progbits
	.p2align	4, 0x90
	.type	_ZN42_$LT$$RF$T$u20$as$u20$core..fmt..Debug$GT$3fmt17h0ba8f330b51b2000E,@function
_ZN42_$LT$$RF$T$u20$as$u20$core..fmt..Debug$GT$3fmt17h0ba8f330b51b2000E:
.Lfunc_begin3:
	.file	6 "/rustc/9b00956e56009bab2aa15d7bff10916599e3d6d6/library/core/src/fmt" "mod.rs"
	.loc	6 2333 0
	.cfi_startproc
	subq	$24, %rsp
	.cfi_def_cfa_offset 32
	movq	%rdi, 8(%rsp)
	movq	%rsi, 16(%rsp)
.Ltmp12:
	.loc	6 2333 71 prologue_end
	movq	(%rdi), %rdi
	.loc	6 2333 62 is_stmt 0
	callq	_ZN4core3fmt3num50_$LT$impl$u20$core..fmt..Debug$u20$for$u20$i32$GT$3fmt17h014ea1868fb770e1E
	.loc	6 2333 84
	andb	$1, %al
	movzbl	%al, %eax
	.loc	6 2333 84 epilogue_begin
	addq	$24, %rsp
	.cfi_def_cfa_offset 8
	retq
.Ltmp13:
.Lfunc_end3:
	.size	_ZN42_$LT$$RF$T$u20$as$u20$core..fmt..Debug$GT$3fmt17h0ba8f330b51b2000E, .Lfunc_end3-_ZN42_$LT$$RF$T$u20$as$u20$core..fmt..Debug$GT$3fmt17h0ba8f330b51b2000E
	.cfi_endproc

	.section	".text._ZN4core3fmt3num50_$LT$impl$u20$core..fmt..Debug$u20$for$u20$i32$GT$3fmt17h014ea1868fb770e1E","ax",@progbits
	.p2align	4, 0x90
	.type	_ZN4core3fmt3num50_$LT$impl$u20$core..fmt..Debug$u20$for$u20$i32$GT$3fmt17h014ea1868fb770e1E,@function
_ZN4core3fmt3num50_$LT$impl$u20$core..fmt..Debug$u20$for$u20$i32$GT$3fmt17h014ea1868fb770e1E:
.Lfunc_begin4:
	.file	7 "/rustc/9b00956e56009bab2aa15d7bff10916599e3d6d6/library/core/src/fmt" "num.rs"
	.loc	7 189 0 is_stmt 1
	.cfi_startproc
	subq	$40, %rsp
	.cfi_def_cfa_offset 48
	movq	%rdi, (%rsp)
	movq	%rsi, 8(%rsp)
	movq	%rdi, 24(%rsp)
	movq	%rsi, 32(%rsp)
.Ltmp14:
	.loc	6 1887 9 prologue_end
	movl	52(%rsi), %eax
	andl	$16, %eax
.Ltmp15:
	.loc	7 190 20
	cmpl	$0, %eax
	jne	.LBB4_2
	.loc	7 0 20 is_stmt 0
	movq	8(%rsp), %rax
.Ltmp16:
	.loc	6 1891 9 is_stmt 1
	movl	52(%rax), %eax
	andl	$32, %eax
.Ltmp17:
	.loc	7 192 27
	cmpl	$0, %eax
	je	.LBB4_3
	jmp	.LBB4_4
.LBB4_2:
	.loc	7 0 27 is_stmt 0
	movq	8(%rsp), %rsi
	movq	(%rsp), %rdi
	.loc	7 191 21 is_stmt 1
	callq	*_ZN4core3fmt3num53_$LT$impl$u20$core..fmt..LowerHex$u20$for$u20$i32$GT$3fmt17hfa7878fdd9a3147fE@GOTPCREL(%rip)
	andb	$1, %al
	movb	%al, 23(%rsp)
	jmp	.LBB4_6
.LBB4_3:
	.loc	7 0 21 is_stmt 0
	movq	8(%rsp), %rsi
	movq	(%rsp), %rdi
	.loc	7 195 21 is_stmt 1
	callq	*_ZN4core3fmt3num3imp52_$LT$impl$u20$core..fmt..Display$u20$for$u20$i32$GT$3fmt17h299accfbede7160dE@GOTPCREL(%rip)
	andb	$1, %al
	movb	%al, 23(%rsp)
	jmp	.LBB4_5
.LBB4_4:
	.loc	7 0 21 is_stmt 0
	movq	8(%rsp), %rsi
	movq	(%rsp), %rdi
	.loc	7 193 21 is_stmt 1
	callq	*_ZN4core3fmt3num53_$LT$impl$u20$core..fmt..UpperHex$u20$for$u20$i32$GT$3fmt17h67ec8c896098cb14E@GOTPCREL(%rip)
	andb	$1, %al
	movb	%al, 23(%rsp)
.LBB4_5:
	.loc	7 190 17
	jmp	.LBB4_6
.LBB4_6:
	.loc	7 197 14
	movb	23(%rsp), %al
	andb	$1, %al
	movzbl	%al, %eax
	.loc	7 197 14 epilogue_begin is_stmt 0
	addq	$40, %rsp
	.cfi_def_cfa_offset 8
	retq
.Ltmp18:
.Lfunc_end4:
	.size	_ZN4core3fmt3num50_$LT$impl$u20$core..fmt..Debug$u20$for$u20$i32$GT$3fmt17h014ea1868fb770e1E, .Lfunc_end4-_ZN4core3fmt3num50_$LT$impl$u20$core..fmt..Debug$u20$for$u20$i32$GT$3fmt17h014ea1868fb770e1E
	.cfi_endproc

	.section	".text._ZN4core3ops8function6FnOnce40call_once$u7b$$u7b$vtable.shim$u7d$$u7d$17h85d30e84e93f6837E","ax",@progbits
	.p2align	4, 0x90
	.type	_ZN4core3ops8function6FnOnce40call_once$u7b$$u7b$vtable.shim$u7d$$u7d$17h85d30e84e93f6837E,@function
_ZN4core3ops8function6FnOnce40call_once$u7b$$u7b$vtable.shim$u7d$$u7d$17h85d30e84e93f6837E:
.Lfunc_begin5:
	.file	8 "/rustc/9b00956e56009bab2aa15d7bff10916599e3d6d6/library/core/src/ops" "function.rs"
	.loc	8 250 0 is_stmt 1
	.cfi_startproc
	subq	$24, %rsp
	.cfi_def_cfa_offset 32
	movq	%rdi, 16(%rsp)
.Ltmp19:
	.loc	8 250 5 prologue_end
	movq	(%rdi), %rdi
	callq	_ZN4core3ops8function6FnOnce9call_once17h283c37f79e7684eaE
	.loc	8 250 5 epilogue_begin is_stmt 0
	addq	$24, %rsp
	.cfi_def_cfa_offset 8
	retq
.Ltmp20:
.Lfunc_end5:
	.size	_ZN4core3ops8function6FnOnce40call_once$u7b$$u7b$vtable.shim$u7d$$u7d$17h85d30e84e93f6837E, .Lfunc_end5-_ZN4core3ops8function6FnOnce40call_once$u7b$$u7b$vtable.shim$u7d$$u7d$17h85d30e84e93f6837E
	.cfi_endproc

	.section	.text._ZN4core3ops8function6FnOnce9call_once17h0fa935f26b0375f8E,"ax",@progbits
	.p2align	4, 0x90
	.type	_ZN4core3ops8function6FnOnce9call_once17h0fa935f26b0375f8E,@function
_ZN4core3ops8function6FnOnce9call_once17h0fa935f26b0375f8E:
.Lfunc_begin6:
	.loc	8 250 0 is_stmt 1
	.cfi_startproc
	subq	$24, %rsp
	.cfi_def_cfa_offset 32
	movq	%rdi, 16(%rsp)
.Ltmp21:
	.loc	8 250 5 prologue_end
	callq	*%rdi
	.loc	8 250 5 epilogue_begin is_stmt 0
	addq	$24, %rsp
	.cfi_def_cfa_offset 8
	retq
.Ltmp22:
.Lfunc_end6:
	.size	_ZN4core3ops8function6FnOnce9call_once17h0fa935f26b0375f8E, .Lfunc_end6-_ZN4core3ops8function6FnOnce9call_once17h0fa935f26b0375f8E
	.cfi_endproc

	.section	.text._ZN4core3ops8function6FnOnce9call_once17h283c37f79e7684eaE,"ax",@progbits
	.p2align	4, 0x90
	.type	_ZN4core3ops8function6FnOnce9call_once17h283c37f79e7684eaE,@function
_ZN4core3ops8function6FnOnce9call_once17h283c37f79e7684eaE:
.Lfunc_begin7:
	.loc	8 250 0 is_stmt 1
	.cfi_startproc
	.cfi_personality 155, DW.ref.rust_eh_personality
	.cfi_lsda 27, .Lexception0
	subq	$40, %rsp
	.cfi_def_cfa_offset 48
	movq	%rdi, 8(%rsp)
.Ltmp23:
	leaq	8(%rsp), %rdi
.Ltmp26:
	.loc	8 250 5 prologue_end
	callq	_ZN3std2rt10lang_start28_$u7b$$u7b$closure$u7d$$u7d$17he08794fbbe382daaE
.Ltmp24:
	movl	%eax, 4(%rsp)
	jmp	.LBB7_3
.LBB7_1:
	movq	24(%rsp), %rdi
	callq	_Unwind_Resume@PLT
.LBB7_2:
.Ltmp25:
	.loc	8 0 5 is_stmt 0
	movq	%rax, %rcx
	movl	%edx, %eax
	movq	%rcx, 24(%rsp)
	movl	%eax, 32(%rsp)
	jmp	.LBB7_1
.LBB7_3:
	movl	4(%rsp), %eax
	.loc	8 250 5 epilogue_begin
	addq	$40, %rsp
	.cfi_def_cfa_offset 8
	retq
.Ltmp27:
.Lfunc_end7:
	.size	_ZN4core3ops8function6FnOnce9call_once17h283c37f79e7684eaE, .Lfunc_end7-_ZN4core3ops8function6FnOnce9call_once17h283c37f79e7684eaE
	.cfi_endproc
	.section	.gcc_except_table._ZN4core3ops8function6FnOnce9call_once17h283c37f79e7684eaE,"a",@progbits
	.p2align	2, 0x0
GCC_except_table7:
.Lexception0:
	.byte	255
	.byte	255
	.byte	1
	.uleb128 .Lcst_end0-.Lcst_begin0
.Lcst_begin0:
	.uleb128 .Ltmp23-.Lfunc_begin7
	.uleb128 .Ltmp24-.Ltmp23
	.uleb128 .Ltmp25-.Lfunc_begin7
	.byte	0
	.uleb128 .Ltmp24-.Lfunc_begin7
	.uleb128 .Lfunc_end7-.Ltmp24
	.byte	0
	.byte	0
.Lcst_end0:
	.p2align	2, 0x0

	.section	".text._ZN4core3ptr28drop_in_place$LT$$RF$i32$GT$17h8eebda7a15c67db0E","ax",@progbits
	.p2align	4, 0x90
	.type	_ZN4core3ptr28drop_in_place$LT$$RF$i32$GT$17h8eebda7a15c67db0E,@function
_ZN4core3ptr28drop_in_place$LT$$RF$i32$GT$17h8eebda7a15c67db0E:
.Lfunc_begin8:
	.file	9 "/rustc/9b00956e56009bab2aa15d7bff10916599e3d6d6/library/core/src/ptr" "mod.rs"
	.loc	9 515 0 is_stmt 1
	.cfi_startproc
	movq	%rdi, -8(%rsp)
.Ltmp28:
	.loc	9 515 1 prologue_end
	retq
.Ltmp29:
.Lfunc_end8:
	.size	_ZN4core3ptr28drop_in_place$LT$$RF$i32$GT$17h8eebda7a15c67db0E, .Lfunc_end8-_ZN4core3ptr28drop_in_place$LT$$RF$i32$GT$17h8eebda7a15c67db0E
	.cfi_endproc

	.section	".text._ZN4core3ptr85drop_in_place$LT$std..rt..lang_start$LT$$LP$$RP$$GT$..$u7b$$u7b$closure$u7d$$u7d$$GT$17hc8d40c9a3c000db4E","ax",@progbits
	.p2align	4, 0x90
	.type	_ZN4core3ptr85drop_in_place$LT$std..rt..lang_start$LT$$LP$$RP$$GT$..$u7b$$u7b$closure$u7d$$u7d$$GT$17hc8d40c9a3c000db4E,@function
_ZN4core3ptr85drop_in_place$LT$std..rt..lang_start$LT$$LP$$RP$$GT$..$u7b$$u7b$closure$u7d$$u7d$$GT$17hc8d40c9a3c000db4E:
.Lfunc_begin9:
	.loc	9 515 0
	.cfi_startproc
	movq	%rdi, -8(%rsp)
.Ltmp30:
	.loc	9 515 1 prologue_end
	retq
.Ltmp31:
.Lfunc_end9:
	.size	_ZN4core3ptr85drop_in_place$LT$std..rt..lang_start$LT$$LP$$RP$$GT$..$u7b$$u7b$closure$u7d$$u7d$$GT$17hc8d40c9a3c000db4E, .Lfunc_end9-_ZN4core3ptr85drop_in_place$LT$std..rt..lang_start$LT$$LP$$RP$$GT$..$u7b$$u7b$closure$u7d$$u7d$$GT$17hc8d40c9a3c000db4E
	.cfi_endproc

	.section	.text._ZN4core9panicking13assert_failed17h8d2660734b755456E,"ax",@progbits
	.p2align	4, 0x90
	.type	_ZN4core9panicking13assert_failed17h8d2660734b755456E,@function
_ZN4core9panicking13assert_failed17h8d2660734b755456E:
.Lfunc_begin10:
	.file	10 "/rustc/9b00956e56009bab2aa15d7bff10916599e3d6d6/library/core/src" "panicking.rs"
	.loc	10 288 0
	.cfi_startproc
	subq	$40, %rsp
	.cfi_def_cfa_offset 48
	movq	%rcx, %r9
.Ltmp32:
	movb	%dil, %al
	movq	%rsi, 16(%rsp)
	movq	%rdx, 24(%rsp)
	movb	%al, 39(%rsp)
.Ltmp33:
	.loc	10 298 5 prologue_end
	movq	%rsp, %rcx
	movq	%r8, (%rcx)
	movzbl	%al, %edi
	leaq	.L__unnamed_2(%rip), %r8
	movq	_ZN4core9panicking19assert_failed_inner17h3fa4c4749ee29c1dE@GOTPCREL(%rip), %rax
	leaq	16(%rsp), %rsi
	leaq	24(%rsp), %rcx
	movq	%r8, %rdx
	callq	*%rax
.Ltmp34:
.Lfunc_end10:
	.size	_ZN4core9panicking13assert_failed17h8d2660734b755456E, .Lfunc_end10-_ZN4core9panicking13assert_failed17h8d2660734b755456E
	.cfi_endproc

	.section	".text._ZN54_$LT$$LP$$RP$$u20$as$u20$std..process..Termination$GT$6report17hae08c4678f09dc11E","ax",@progbits
	.p2align	4, 0x90
	.type	_ZN54_$LT$$LP$$RP$$u20$as$u20$std..process..Termination$GT$6report17hae08c4678f09dc11E,@function
_ZN54_$LT$$LP$$RP$$u20$as$u20$std..process..Termination$GT$6report17hae08c4678f09dc11E:
.Lfunc_begin11:
	.cfi_startproc
	.loc	4 2412 6 prologue_end
	xorl	%eax, %eax
	retq
.Ltmp35:
.Lfunc_end11:
	.size	_ZN54_$LT$$LP$$RP$$u20$as$u20$std..process..Termination$GT$6report17hae08c4678f09dc11E, .Lfunc_end11-_ZN54_$LT$$LP$$RP$$u20$as$u20$std..process..Termination$GT$6report17hae08c4678f09dc11E
	.cfi_endproc

	.section	.text._ZN17reference_address4add117hec1c20909ed4a7acE,"ax",@progbits
	.p2align	4, 0x90
	.type	_ZN17reference_address4add117hec1c20909ed4a7acE,@function
_ZN17reference_address4add117hec1c20909ed4a7acE:
.Lfunc_begin12:
	.file	11 "/home/shaohua/dev/rust/intro-to-rust/code/references/src/bin" "reference-address.rs"
	.loc	11 5 0
	.cfi_startproc
	subq	$24, %rsp
	.cfi_def_cfa_offset 32
.Ltmp36:
	.loc	11 6 22 prologue_end
	movl	$42, 12(%rsp)
.Ltmp37:
	.loc	11 7 17
	leaq	12(%rsp), %rax
	movq	%rax, 16(%rsp)
.Ltmp38:
	.loc	11 8 5
	movl	12(%rsp), %eax
	incl	%eax
	movl	%eax, 8(%rsp)
	seto	%al
	testb	$1, %al
	jne	.LBB12_2
	.loc	11 0 5 is_stmt 0
	movl	8(%rsp), %eax
	.loc	11 8 5
	movl	%eax, 12(%rsp)
	.loc	11 9 5 is_stmt 1
	movl	12(%rsp), %eax
.Ltmp39:
	.loc	11 10 2 epilogue_begin
	addq	$24, %rsp
	.cfi_def_cfa_offset 8
	retq
.LBB12_2:
	.cfi_def_cfa_offset 32
.Ltmp40:
	.loc	11 8 5
	leaq	str.0(%rip), %rdi
	leaq	.L__unnamed_3(%rip), %rdx
	movq	_ZN4core9panicking5panic17h8ddd58dc57c2dc00E@GOTPCREL(%rip), %rax
	movl	$28, %esi
	callq	*%rax
.Ltmp41:
.Lfunc_end12:
	.size	_ZN17reference_address4add117hec1c20909ed4a7acE, .Lfunc_end12-_ZN17reference_address4add117hec1c20909ed4a7acE
	.cfi_endproc

	.section	.text._ZN17reference_address4main17haa9a30c9debf11deE,"ax",@progbits
	.p2align	4, 0x90
	.type	_ZN17reference_address4main17haa9a30c9debf11deE,@function
_ZN17reference_address4main17haa9a30c9debf11deE:
.Lfunc_begin13:
	.loc	11 12 0
	.cfi_startproc
	subq	$104, %rsp
	.cfi_def_cfa_offset 112
.Ltmp42:
	.loc	11 13 16 prologue_end
	callq	_ZN17reference_address4add117hec1c20909ed4a7acE
	movl	%eax, 32(%rsp)
	.loc	11 13 5 is_stmt 0
	leaq	32(%rsp), %rax
	movq	%rax, 16(%rsp)
	leaq	.L__unnamed_4(%rip), %rax
	movq	%rax, 24(%rsp)
	movq	16(%rsp), %rax
	movq	%rax, (%rsp)
	movq	%rax, 88(%rsp)
	movq	24(%rsp), %rcx
	movq	%rcx, 8(%rsp)
	movq	%rcx, 96(%rsp)
.Ltmp43:
	.loc	11 13 5
	movl	(%rax), %eax
	cmpl	(%rcx), %eax
	je	.LBB13_2
	.loc	11 0 5
	movq	8(%rsp), %rdx
	movq	(%rsp), %rsi
	.loc	11 13 5
	movb	$0, 39(%rsp)
.Ltmp44:
	.loc	11 13 5
	movq	$0, 40(%rsp)
	movzbl	39(%rsp), %edi
	leaq	.L__unnamed_5(%rip), %r8
	leaq	40(%rsp), %rcx
	callq	_ZN4core9panicking13assert_failed17h8d2660734b755456E
.Ltmp45:
.LBB13_2:
	.loc	11 14 2 epilogue_begin is_stmt 1
	addq	$104, %rsp
	.cfi_def_cfa_offset 8
	retq
.Ltmp46:
.Lfunc_end13:
	.size	_ZN17reference_address4main17haa9a30c9debf11deE, .Lfunc_end13-_ZN17reference_address4main17haa9a30c9debf11deE
	.cfi_endproc

	.section	.text.main,"ax",@progbits
	.globl	main
	.p2align	4, 0x90
	.type	main,@function
main:
.Lfunc_begin14:
	.cfi_startproc
	pushq	%rax
	.cfi_def_cfa_offset 16
	movq	%rsi, %rdx
	movq	__rustc_debug_gdb_scripts_section__@GOTPCREL(%rip), %rax
	movb	(%rax), %al
	movslq	%edi, %rsi
	leaq	_ZN17reference_address4main17haa9a30c9debf11deE(%rip), %rdi
	xorl	%ecx, %ecx
	callq	_ZN3std2rt10lang_start17hb3753749e8c6f08fE
	popq	%rcx
	.cfi_def_cfa_offset 8
	retq
.Lfunc_end14:
	.size	main, .Lfunc_end14-main
	.cfi_endproc

	.type	.L__unnamed_1,@object
	.section	.data.rel.ro..L__unnamed_1,"aw",@progbits
	.p2align	3, 0x0
.L__unnamed_1:
	.quad	_ZN4core3ptr85drop_in_place$LT$std..rt..lang_start$LT$$LP$$RP$$GT$..$u7b$$u7b$closure$u7d$$u7d$$GT$17hc8d40c9a3c000db4E
	.asciz	"\b\000\000\000\000\000\000\000\b\000\000\000\000\000\000"
	.quad	_ZN4core3ops8function6FnOnce40call_once$u7b$$u7b$vtable.shim$u7d$$u7d$17h85d30e84e93f6837E
	.quad	_ZN3std2rt10lang_start28_$u7b$$u7b$closure$u7d$$u7d$17he08794fbbe382daaE
	.quad	_ZN3std2rt10lang_start28_$u7b$$u7b$closure$u7d$$u7d$17he08794fbbe382daaE
	.size	.L__unnamed_1, 48

	.type	.L__unnamed_2,@object
	.section	.data.rel.ro..L__unnamed_2,"aw",@progbits
	.p2align	3, 0x0
.L__unnamed_2:
	.quad	_ZN4core3ptr28drop_in_place$LT$$RF$i32$GT$17h8eebda7a15c67db0E
	.asciz	"\b\000\000\000\000\000\000\000\b\000\000\000\000\000\000"
	.quad	_ZN42_$LT$$RF$T$u20$as$u20$core..fmt..Debug$GT$3fmt17h0ba8f330b51b2000E
	.size	.L__unnamed_2, 32

	.type	.L__unnamed_6,@object
	.section	.rodata..L__unnamed_6,"a",@progbits
.L__unnamed_6:
	.ascii	"reference-address.rs"
	.size	.L__unnamed_6, 20

	.type	.L__unnamed_3,@object
	.section	.data.rel.ro..L__unnamed_3,"aw",@progbits
	.p2align	3, 0x0
.L__unnamed_3:
	.quad	.L__unnamed_6
	.asciz	"\024\000\000\000\000\000\000\000\b\000\000\000\005\000\000"
	.size	.L__unnamed_3, 24

	.type	str.0,@object
	.section	.rodata.str.0,"a",@progbits
	.p2align	4, 0x0
str.0:
	.ascii	"attempt to add with overflow"
	.size	str.0, 28

	.type	.L__unnamed_4,@object
	.section	.rodata.cst4,"aM",@progbits,4
	.p2align	2, 0x0
.L__unnamed_4:
	.asciz	"+\000\000"
	.size	.L__unnamed_4, 4

	.type	.L__unnamed_5,@object
	.section	.data.rel.ro..L__unnamed_5,"aw",@progbits
	.p2align	3, 0x0
.L__unnamed_5:
	.quad	.L__unnamed_6
	.asciz	"\024\000\000\000\000\000\000\000\r\000\000\000\005\000\000"
	.size	.L__unnamed_5, 24

	.type	__rustc_debug_gdb_scripts_section__,@object
	.section	.debug_gdb_scripts,"aMS",@progbits,1,unique,1
	.weak	__rustc_debug_gdb_scripts_section__
__rustc_debug_gdb_scripts_section__:
	.asciz	"\001gdb_load_rust_pretty_printers.py"
	.size	__rustc_debug_gdb_scripts_section__, 34

	.section	.data.rel.ro..L__unnamed_1,"aw",@progbits
.Lsec_end0:
	.section	.data.rel.ro..L__unnamed_2,"aw",@progbits
.Lsec_end1:
	.section	.text._ZN3std10sys_common9backtrace28__rust_begin_short_backtrace17h68524d7dadb5a732E,"ax",@progbits
.Lsec_end2:
	.section	.text._ZN3std2rt10lang_start17hb3753749e8c6f08fE,"ax",@progbits
.Lsec_end3:
	.section	".text._ZN3std2rt10lang_start28_$u7b$$u7b$closure$u7d$$u7d$17he08794fbbe382daaE","ax",@progbits
.Lsec_end4:
	.section	".text._ZN42_$LT$$RF$T$u20$as$u20$core..fmt..Debug$GT$3fmt17h0ba8f330b51b2000E","ax",@progbits
.Lsec_end5:
	.section	".text._ZN4core3fmt3num50_$LT$impl$u20$core..fmt..Debug$u20$for$u20$i32$GT$3fmt17h014ea1868fb770e1E","ax",@progbits
.Lsec_end6:
	.section	".text._ZN4core3ops8function6FnOnce40call_once$u7b$$u7b$vtable.shim$u7d$$u7d$17h85d30e84e93f6837E","ax",@progbits
.Lsec_end7:
	.section	.text._ZN4core3ops8function6FnOnce9call_once17h0fa935f26b0375f8E,"ax",@progbits
.Lsec_end8:
	.section	.text._ZN4core3ops8function6FnOnce9call_once17h283c37f79e7684eaE,"ax",@progbits
.Lsec_end9:
	.section	".text._ZN4core3ptr28drop_in_place$LT$$RF$i32$GT$17h8eebda7a15c67db0E","ax",@progbits
.Lsec_end10:
	.section	".text._ZN4core3ptr85drop_in_place$LT$std..rt..lang_start$LT$$LP$$RP$$GT$..$u7b$$u7b$closure$u7d$$u7d$$GT$17hc8d40c9a3c000db4E","ax",@progbits
.Lsec_end11:
	.section	.text._ZN4core9panicking13assert_failed17h8d2660734b755456E,"ax",@progbits
.Lsec_end12:
	.section	".text._ZN54_$LT$$LP$$RP$$u20$as$u20$std..process..Termination$GT$6report17hae08c4678f09dc11E","ax",@progbits
.Lsec_end13:
	.section	.text._ZN17reference_address4add117hec1c20909ed4a7acE,"ax",@progbits
.Lsec_end14:
	.section	.text._ZN17reference_address4main17haa9a30c9debf11deE,"ax",@progbits
.Lsec_end15:
	.section	.data.DW.ref.rust_eh_personality,"awG",@progbits,DW.ref.rust_eh_personality,comdat
	.p2align	3, 0x0
	.type	DW.ref.rust_eh_personality,@object
	.size	DW.ref.rust_eh_personality, 8
DW.ref.rust_eh_personality:
	.quad	rust_eh_personality
	.ident	"rustc version 1.78.0 (9b00956e5 2024-04-29)"
	.section	".note.GNU-stack","",@progbits